target datalayout = "e-m:e-p270:32:32-p271:32:32-p272:64:64-i64:64-i128:128-f80:128-n8:16:32:64-S128"
target triple = "x86_64-pc-linux-gnu"

%struct.quic_rcidm_st = type { %struct.quic_conn_id_st, %struct.quic_conn_id_st, %struct.quic_conn_id_st, i64, i64, i64, ptr, ptr, %struct.ossl_list_st_retiring, i64, i8 }
%struct.quic_conn_id_st = type { i8, [20 x i8] }
%struct.ossl_list_st_retiring = type { ptr, ptr, i64 }

@.str = private unnamed_addr constant [33 x i8] c"../openssl/ssl/quic/quic_rcidm.c\00", align 1

; Function Attrs: inlinehint nounwind uwtable
define internal ptr @ossl_pqueue_RCID_new(ptr noundef %0) #3 {
  %2 = alloca ptr, align 8
  store ptr %0, ptr %2, align 8, !tbaa !20
  %3 = load ptr, ptr %2, align 8, !tbaa !20
  %4 = call ptr @ossl_pqueue_new(ptr noundef %3)
  ret ptr %4
}

; Function Attrs: nounwind uwtable
define ptr @ossl_quic_rcidm_new(ptr noundef %0) #0 {
  %2 = alloca ptr, align 8
  %3 = alloca ptr, align 8
  %4 = alloca ptr, align 8
  %5 = alloca i32, align 4
  store ptr %0, ptr %3, align 8, !tbaa !3
  call void @llvm.lifetime.start.p0(i64 8, ptr %4) #7
  %6 = call noalias ptr @CRYPTO_zalloc(i64 noundef 144, ptr noundef @.str, i32 noundef 285)
  store ptr %6, ptr %4, align 8, !tbaa !8
  %7 = icmp eq ptr %6, null
  br i1 %7, label %8, label %9

8:                                                ; preds = %1
  store ptr null, ptr %2, align 8
  store i32 1, ptr %5, align 4
  br label %31

9:                                                ; preds = %1
  %10 = call ptr @ossl_pqueue_RCID_new(ptr noundef @rcid_cmp)
  %11 = load ptr, ptr %4, align 8, !tbaa !8
  %12 = getelementptr inbounds nuw %struct.quic_rcidm_st, ptr %11, i32 0, i32 6
  store ptr %10, ptr %12, align 8, !tbaa !10
  %13 = icmp eq ptr %10, null
  br i1 %13, label %14, label %16

14:                                               ; preds = %9
  %15 = load ptr, ptr %4, align 8, !tbaa !8
  call void @CRYPTO_free(ptr noundef %15, ptr noundef @.str, i32 noundef 289)
  store ptr null, ptr %2, align 8
  store i32 1, ptr %5, align 4
  br label %31

16:                                               ; preds = %9
  %17 = load ptr, ptr %3, align 8, !tbaa !3
  %18 = icmp ne ptr %17, null
  br i1 %18, label %19, label %28

19:                                               ; preds = %16
  %20 = load ptr, ptr %4, align 8, !tbaa !8
  %21 = getelementptr inbounds nuw %struct.quic_rcidm_st, ptr %20, i32 0, i32 1
  %22 = load ptr, ptr %3, align 8, !tbaa !3
  call void @llvm.memcpy.p0.p0.i64(ptr align 1 %21, ptr align 1 %22, i64 21, i1 false), !tbaa.struct !18
  %23 = load ptr, ptr %4, align 8, !tbaa !8
  %24 = getelementptr inbounds nuw %struct.quic_rcidm_st, ptr %23, i32 0, i32 10
  %25 = load i8, ptr %24, align 8
  %26 = and i8 %25, -9
  %27 = or i8 %26, 8
  store i8 %27, ptr %24, align 8
  br label %28

28:                                               ; preds = %19, %16
  %29 = load ptr, ptr %4, align 8, !tbaa !8
  call void @rcidm_update(ptr noundef %29)
  %30 = load ptr, ptr %4, align 8, !tbaa !8
  store ptr %30, ptr %2, align 8
  store i32 1, ptr %5, align 4
  br label %31

31:                                               ; preds = %28, %14, %8
  call void @llvm.lifetime.end.p0(i64 8, ptr %4) #7
  %32 = load ptr, ptr %2, align 8
  ret ptr %32
}