; Function Attrs: nounwind uwtable
define ptr @ossl_quic_rcidm_new(ptr noundef readonly captures(address_is_null) %0) local_unnamed_addr #0 {
  %2 = tail call noalias ptr @CRYPTO_zalloc(i64 noundef 144, ptr noundef nonnull @.str, i32 noundef 285) #9
  %3 = icmp eq ptr %2, null
  br i1 %3, label %16, label %4

4:                                                ; preds = %1
  %5 = tail call ptr @ossl_pqueue_new(ptr noundef nonnull @rcid_cmp) #9
  %6 = getelementptr inbounds nuw i8, ptr %2, i64 88
  store ptr %5, ptr %6, align 8, !tbaa !3
  %7 = icmp eq ptr %5, null
  br i1 %7, label %8, label %9

8:                                                ; preds = %4
  tail call void @CRYPTO_free(ptr noundef nonnull %2, ptr noundef nonnull @.str, i32 noundef 289) #9
  br label %16

9:                                                ; preds = %4
  %.not = icmp eq ptr %0, null
  br i1 %.not, label %15, label %10

10:                                               ; preds = %9
  %11 = getelementptr inbounds nuw i8, ptr %2, i64 21
  tail call void @llvm.memcpy.p0.p0.i64(ptr noundef nonnull align 1 dereferenceable(21) %11, ptr noundef nonnull align 1 dereferenceable(21) %0, i64 21, i1 false), !tbaa.struct !14
  %12 = getelementptr inbounds nuw i8, ptr %2, i64 136
  %13 = load i8, ptr %12, align 8
  %14 = or i8 %13, 8
  store i8 %14, ptr %12, align 8
  br label %15

15:                                               ; preds = %10, %9
  tail call fastcc void @rcidm_update(ptr noundef nonnull %2)
  br label %16

16:                                               ; preds = %1, %15, %8
  %.0 = phi ptr [ null, %8 ], [ %2, %15 ], [ null, %1 ]
  ret ptr %.0
}